target datalayout = "e-m:e-p270:32:32-p271:32:32-p272:64:64-i64:64-i128:128-f80:128-n8:16:32:64-S128"
target triple = "x86_64-pc-linux-gnu"

%"class.o3dgc::DynamicVectorDecoder" = type <{ i64, i64, i64, i64, i64, ptr, %"class.o3dgc::DVEncodeParams", i32, [4 x i8] }>
%"class.o3dgc::DVEncodeParams" = type { i64, i32, i32 }
%"class.o3dgc::DynamicVector" = type { i64, i64, i64, ptr, ptr, ptr }
%"class.o3dgc::BinaryStream" = type <{ %"class.o3dgc::Vector", i32, [4 x i8] }>
%"class.o3dgc::Vector" = type { ptr, i64, i64 }

; Function Attrs: mustprogress nounwind uwtable
define linkonce_odr hidden noundef nonnull align 1 dereferenceable(1) ptr @_ZNK5o3dgc6VectorIhEixEm(ptr noundef nonnull align 8 dereferenceable(24) %0, i64 noundef %1) #0 comdat align 2 {
  %3 = alloca ptr, align 8
  %4 = alloca i64, align 8
  store ptr %0, ptr %3, align 8
  store i64 %1, ptr %4, align 8
  %5 = load ptr, ptr %3, align 8
  %6 = getelementptr inbounds nuw %"class.o3dgc::Vector", ptr %5, i32 0, i32 0
  %7 = load ptr, ptr %6, align 8
  %8 = load i64, ptr %4, align 8
  %9 = getelementptr inbounds nuw i8, ptr %7, i64 %8
  ret ptr %9
}

; Function Attrs: mustprogress nounwind uwtable
define linkonce_odr hidden noundef zeroext i8 @_ZNK5o3dgc12BinaryStream13ReadUChar8BinERm(ptr noundef nonnull align 8 dereferenceable(28) %0, ptr noundef nonnull align 8 dereferenceable(8) %1) #0 comdat align 2 {
  %3 = alloca ptr, align 8
  %4 = alloca ptr, align 8
  store ptr %0, ptr %3, align 8
  store ptr %1, ptr %4, align 8
  %5 = load ptr, ptr %3, align 8
  %6 = getelementptr inbounds nuw %"class.o3dgc::BinaryStream", ptr %5, i32 0, i32 0
  %7 = load ptr, ptr %4, align 8
  %8 = load i64, ptr %7, align 8
  %9 = add i64 %8, 1
  store i64 %9, ptr %7, align 8
  %10 = call noundef nonnull align 1 dereferenceable(1) ptr @_ZNK5o3dgc6VectorIhEixEm(ptr noundef nonnull align 8 dereferenceable(24) %6, i64 noundef %8)
  %11 = load i8, ptr %10, align 1
  ret i8 %11
}

; Function Attrs: mustprogress nounwind uwtable
define linkonce_odr hidden noundef zeroext i8 @_ZNK5o3dgc12BinaryStream14ReadUCharASCIIERm(ptr noundef nonnull align 8 dereferenceable(28) %0, ptr noundef nonnull align 8 dereferenceable(8) %1) #0 comdat align 2 {
  %3 = alloca ptr, align 8
  %4 = alloca ptr, align 8
  store ptr %0, ptr %3, align 8
  store ptr %1, ptr %4, align 8
  %5 = load ptr, ptr %3, align 8
  %6 = getelementptr inbounds nuw %"class.o3dgc::BinaryStream", ptr %5, i32 0, i32 0
  %7 = load ptr, ptr %4, align 8
  %8 = load i64, ptr %7, align 8
  %9 = add i64 %8, 1
  store i64 %9, ptr %7, align 8
  %10 = call noundef nonnull align 1 dereferenceable(1) ptr @_ZNK5o3dgc6VectorIhEixEm(ptr noundef nonnull align 8 dereferenceable(24) %6, i64 noundef %8)
  %11 = load i8, ptr %10, align 1
  ret i8 %11
}

; Function Attrs: mustprogress nounwind uwtable
define linkonce_odr hidden void @_ZN5o3dgc14DVEncodeParams12SetQuantBitsEm(ptr noundef nonnull align 8 dereferenceable(16) %0, i64 noundef %1) #0 comdat align 2 {
  %3 = alloca ptr, align 8
  %4 = alloca i64, align 8
  store ptr %0, ptr %3, align 8
  store i64 %1, ptr %4, align 8
  %5 = load ptr, ptr %3, align 8
  %6 = load i64, ptr %4, align 8
  %7 = getelementptr inbounds nuw %"class.o3dgc::DVEncodeParams", ptr %5, i32 0, i32 0
  store i64 %6, ptr %7, align 8
  ret void
}

; Function Attrs: mustprogress nounwind uwtable
define linkonce_odr hidden void @_ZN5o3dgc13DynamicVector12SetDimVectorEm(ptr noundef nonnull align 8 dereferenceable(48) %0, i64 noundef %1) #0 comdat align 2 {
  %3 = alloca ptr, align 8
  %4 = alloca i64, align 8
  store ptr %0, ptr %3, align 8
  store i64 %1, ptr %4, align 8
  %5 = load ptr, ptr %3, align 8
  %6 = load i64, ptr %4, align 8
  %7 = getelementptr inbounds nuw %"class.o3dgc::DynamicVector", ptr %5, i32 0, i32 1
  store i64 %6, ptr %7, align 8
  ret void
}

; Function Attrs: mustprogress nounwind uwtable
define linkonce_odr hidden noundef i64 @_ZNK5o3dgc13DynamicVector10GetNVectorEv(ptr noundef nonnull align 8 dereferenceable(48) %0) #0 comdat align 2 {
  %2 = alloca ptr, align 8
  store ptr %0, ptr %2, align 8
  %3 = load ptr, ptr %2, align 8
  %4 = getelementptr inbounds nuw %"class.o3dgc::DynamicVector", ptr %3, i32 0, i32 0
  %5 = load i64, ptr %4, align 8
  ret i64 %5
}

; Function Attrs: mustprogress nounwind uwtable
define linkonce_odr hidden void @_ZN5o3dgc13DynamicVector10SetNVectorEm(ptr noundef nonnull align 8 dereferenceable(48) %0, i64 noundef %1) #0 comdat align 2 {
  %3 = alloca ptr, align 8
  %4 = alloca i64, align 8
  store ptr %0, ptr %3, align 8
  store i64 %1, ptr %4, align 8
  %5 = load ptr, ptr %3, align 8
  %6 = load i64, ptr %4, align 8
  %7 = getelementptr inbounds nuw %"class.o3dgc::DynamicVector", ptr %5, i32 0, i32 0
  store i64 %6, ptr %7, align 8
  ret void
}

; Function Attrs: mustprogress nounwind uwtable
define linkonce_odr hidden void @_ZN5o3dgc14DVEncodeParams13SetEncodeModeENS_19O3DGCDVEncodingModeE(ptr noundef nonnull align 8 dereferenceable(16) %0, i32 noundef %1) #0 comdat align 2 {
  %3 = alloca ptr, align 8
  %4 = alloca i32, align 4
  store ptr %0, ptr %3, align 8
  store i32 %1, ptr %4, align 4
  %5 = load ptr, ptr %3, align 8
  %6 = load i32, ptr %4, align 4
  %7 = getelementptr inbounds nuw %"class.o3dgc::DVEncodeParams", ptr %5, i32 0, i32 2
  store i32 %6, ptr %7, align 4
  ret void
}

; Function Attrs: mustprogress uwtable
define linkonce_odr hidden noundef zeroext i8 @_ZNK5o3dgc12BinaryStream9ReadUCharERmNS_15O3DGCStreamTypeE(ptr noundef nonnull align 8 dereferenceable(28) %0, ptr noundef nonnull align 8 dereferenceable(8) %1, i32 noundef %2) #2 comdat align 2 {
  %4 = alloca ptr, align 8
  %5 = alloca ptr, align 8
  %6 = alloca i32, align 4
  %7 = alloca i8, align 1
  store ptr %0, ptr %4, align 8
  store ptr %1, ptr %5, align 8
  store i32 %2, ptr %6, align 4
  %8 = load ptr, ptr %4, align 8
  call void @llvm.lifetime.start.p0(i64 1, ptr %7) #11
  %9 = load i32, ptr %6, align 4
  %10 = icmp eq i32 %9, 1
  br i1 %10, label %11, label %14

11:                                               ; preds = %3
  %12 = load ptr, ptr %5, align 8
  %13 = call noundef zeroext i8 @_ZNK5o3dgc12BinaryStream14ReadUCharASCIIERm(ptr noundef nonnull align 8 dereferenceable(28) %8, ptr noundef nonnull align 8 dereferenceable(8) %12)
  store i8 %13, ptr %7, align 1
  br label %17

14:                                               ; preds = %3
  %15 = load ptr, ptr %5, align 8
  %16 = call noundef zeroext i8 @_ZNK5o3dgc12BinaryStream13ReadUChar8BinERm(ptr noundef nonnull align 8 dereferenceable(28) %8, ptr noundef nonnull align 8 dereferenceable(8) %15)
  store i8 %16, ptr %7, align 1
  br label %17

17:                                               ; preds = %14, %11
  %18 = load i8, ptr %7, align 1
  call void @llvm.lifetime.end.p0(i64 1, ptr %7) #11
  ret i8 %18
}

; Function Attrs: mustprogress uwtable
define hidden noundef i32 @_ZN5o3dgc20DynamicVectorDecoder12DecodeHeaderERNS_13DynamicVectorERKNS_12BinaryStreamE(ptr noundef nonnull align 8 dereferenceable(68) %0, ptr noundef nonnull align 8 dereferenceable(48) %1, ptr noundef nonnull align 8 dereferenceable(28) %2) #2 align 2 {
  %4 = alloca i32, align 4
  %5 = alloca ptr, align 8
  %6 = alloca ptr, align 8
  %7 = alloca ptr, align 8
  %8 = alloca i64, align 8
  %9 = alloca i64, align 8
  %10 = alloca i32, align 4
  store ptr %0, ptr %5, align 8
  store ptr %1, ptr %6, align 8
  store ptr %2, ptr %7, align 8
  %11 = load ptr, ptr %5, align 8
  call void @llvm.lifetime.start.p0(i64 8, ptr %8) #11
  %12 = getelementptr inbounds nuw %"class.o3dgc::DynamicVectorDecoder", ptr %11, i32 0, i32 4
  %13 = load i64, ptr %12, align 8
  store i64 %13, ptr %8, align 8
  call void @llvm.lifetime.start.p0(i64 8, ptr %9) #11
  %14 = load ptr, ptr %7, align 8
  %15 = getelementptr inbounds nuw %"class.o3dgc::DynamicVectorDecoder", ptr %11, i32 0, i32 4
  %16 = call noundef i64 @_ZNK5o3dgc12BinaryStream10ReadUInt32ERmNS_15O3DGCStreamTypeE(ptr noundef nonnull align 8 dereferenceable(28) %14, ptr noundef nonnull align 8 dereferenceable(8) %15, i32 noundef 2)
  store i64 %16, ptr %9, align 8
  %17 = load i64, ptr %9, align 8
  %18 = icmp ne i64 %17, 498
  br i1 %18, label %19, label %31

19:                                               ; preds = %3
  %20 = load i64, ptr %8, align 8
  %21 = getelementptr inbounds nuw %"class.o3dgc::DynamicVectorDecoder", ptr %11, i32 0, i32 4
  store i64 %20, ptr %21, align 8
  %22 = load ptr, ptr %7, align 8
  %23 = getelementptr inbounds nuw %"class.o3dgc::DynamicVectorDecoder", ptr %11, i32 0, i32 4
  %24 = call noundef i64 @_ZNK5o3dgc12BinaryStream10ReadUInt32ERmNS_15O3DGCStreamTypeE(ptr noundef nonnull align 8 dereferenceable(28) %22, ptr noundef nonnull align 8 dereferenceable(8) %23, i32 noundef 1)
  store i64 %24, ptr %9, align 8
  %25 = load i64, ptr %9, align 8
  %26 = icmp ne i64 %25, 498
  br i1 %26, label %27, label %28

27:                                               ; preds = %19
  store i32 5, ptr %4, align 4
  store i32 1, ptr %10, align 4
  br label %71

28:                                               ; preds = %19
  %29 = getelementptr inbounds nuw %"class.o3dgc::DynamicVectorDecoder", ptr %11, i32 0, i32 7
  store i32 1, ptr %29, align 8
  br label %30

30:                                               ; preds = %28
  br label %33

31:                                               ; preds = %3
  %32 = getelementptr inbounds nuw %"class.o3dgc::DynamicVectorDecoder", ptr %11, i32 0, i32 7
  store i32 2, ptr %32, align 8
  br label %33

33:                                               ; preds = %31, %30
  %34 = load ptr, ptr %7, align 8
  %35 = getelementptr inbounds nuw %"class.o3dgc::DynamicVectorDecoder", ptr %11, i32 0, i32 4
  %36 = getelementptr inbounds nuw %"class.o3dgc::DynamicVectorDecoder", ptr %11, i32 0, i32 7
  %37 = load i32, ptr %36, align 8
  %38 = call noundef i64 @_ZNK5o3dgc12BinaryStream10ReadUInt32ERmNS_15O3DGCStreamTypeE(ptr noundef nonnull align 8 dereferenceable(28) %34, ptr noundef nonnull align 8 dereferenceable(8) %35, i32 noundef %37)
  %39 = getelementptr inbounds nuw %"class.o3dgc::DynamicVectorDecoder", ptr %11, i32 0, i32 0
  store i64 %38, ptr %39, align 8
  %40 = getelementptr inbounds nuw %"class.o3dgc::DynamicVectorDecoder", ptr %11, i32 0, i32 6
  %41 = load ptr, ptr %7, align 8
  %42 = getelementptr inbounds nuw %"class.o3dgc::DynamicVectorDecoder", ptr %11, i32 0, i32 4
  %43 = getelementptr inbounds nuw %"class.o3dgc::DynamicVectorDecoder", ptr %11, i32 0, i32 7
  %44 = load i32, ptr %43, align 8
  %45 = call noundef zeroext i8 @_ZNK5o3dgc12BinaryStream9ReadUCharERmNS_15O3DGCStreamTypeE(ptr noundef nonnull align 8 dereferenceable(28) %41, ptr noundef nonnull align 8 dereferenceable(8) %42, i32 noundef %44)
  %46 = zext i8 %45 to i32
  call void @_ZN5o3dgc14DVEncodeParams13SetEncodeModeENS_19O3DGCDVEncodingModeE(ptr noundef nonnull align 8 dereferenceable(16) %40, i32 noundef %46)
  %47 = load ptr, ptr %6, align 8
  %48 = load ptr, ptr %7, align 8
  %49 = getelementptr inbounds nuw %"class.o3dgc::DynamicVectorDecoder", ptr %11, i32 0, i32 4
  %50 = getelementptr inbounds nuw %"class.o3dgc::DynamicVectorDecoder", ptr %11, i32 0, i32 7
  %51 = load i32, ptr %50, align 8
  %52 = call noundef i64 @_ZNK5o3dgc12BinaryStream10ReadUInt32ERmNS_15O3DGCStreamTypeE(ptr noundef nonnull align 8 dereferenceable(28) %48, ptr noundef nonnull align 8 dereferenceable(8) %49, i32 noundef %51)
  call void @_ZN5o3dgc13DynamicVector10SetNVectorEm(ptr noundef nonnull align 8 dereferenceable(48) %47, i64 noundef %52)
  %53 = load ptr, ptr %6, align 8
  %54 = call noundef i64 @_ZNK5o3dgc13DynamicVector10GetNVectorEv(ptr noundef nonnull align 8 dereferenceable(48) %53)
  %55 = icmp ugt i64 %54, 0
  br i1 %55, label %56, label %70

56:                                               ; preds = %33
  %57 = load ptr, ptr %6, align 8
  %58 = load ptr, ptr %7, align 8
  %59 = getelementptr inbounds nuw %"class.o3dgc::DynamicVectorDecoder", ptr %11, i32 0, i32 4
  %60 = getelementptr inbounds nuw %"class.o3dgc::DynamicVectorDecoder", ptr %11, i32 0, i32 7
  %61 = load i32, ptr %60, align 8
  %62 = call noundef i64 @_ZNK5o3dgc12BinaryStream10ReadUInt32ERmNS_15O3DGCStreamTypeE(ptr noundef nonnull align 8 dereferenceable(28) %58, ptr noundef nonnull align 8 dereferenceable(8) %59, i32 noundef %61)
  call void @_ZN5o3dgc13DynamicVector12SetDimVectorEm(ptr noundef nonnull align 8 dereferenceable(48) %57, i64 noundef %62)
  %63 = getelementptr inbounds nuw %"class.o3dgc::DynamicVectorDecoder", ptr %11, i32 0, i32 6
  %64 = load ptr, ptr %7, align 8
  %65 = getelementptr inbounds nuw %"class.o3dgc::DynamicVectorDecoder", ptr %11, i32 0, i32 4
  %66 = getelementptr inbounds nuw %"class.o3dgc::DynamicVectorDecoder", ptr %11, i32 0, i32 7
  %67 = load i32, ptr %66, align 8
  %68 = call noundef zeroext i8 @_ZNK5o3dgc12BinaryStream9ReadUCharERmNS_15O3DGCStreamTypeE(ptr noundef nonnull align 8 dereferenceable(28) %64, ptr noundef nonnull align 8 dereferenceable(8) %65, i32 noundef %67)
  %69 = zext i8 %68 to i64
  call void @_ZN5o3dgc14DVEncodeParams12SetQuantBitsEm(ptr noundef nonnull align 8 dereferenceable(16) %63, i64 noundef %69)
  br label %70

70:                                               ; preds = %56, %33
  store i32 0, ptr %4, align 4
  store i32 1, ptr %10, align 4
  br label %71

71:                                               ; preds = %70, %27
  call void @llvm.lifetime.end.p0(i64 8, ptr %9) #11
  call void @llvm.lifetime.end.p0(i64 8, ptr %8) #11
  %72 = load i32, ptr %4, align 4
  ret i32 %72
}