; Function Attrs: mustprogress uwtable
define hidden noundef range(i32 0, 6) i32 @_ZN5o3dgc20DynamicVectorDecoder12DecodeHeaderERNS_13DynamicVectorERKNS_12BinaryStreamE(ptr noundef nonnull align 8 dereferenceable(68) %0, ptr noundef nonnull writeonly align 8 captures(none) dereferenceable(48) %1, ptr noundef nonnull align 8 dereferenceable(28) %2) local_unnamed_addr #5 align 2 {
  %4 = getelementptr inbounds nuw i8, ptr %0, i64 32
  %5 = load i64, ptr %4, align 8
  %6 = getelementptr inbounds nuw i8, ptr %2, i64 24
  %7 = load i32, ptr %6, align 8
  %8 = icmp eq i32 %7, 0
  %9 = add i64 %5, 1
  store i64 %9, ptr %4, align 8
  %10 = load ptr, ptr %2, align 8
  %11 = getelementptr inbounds nuw i8, ptr %10, i64 %5
  %12 = load i8, ptr %11, align 1
  br i1 %8, label %13, label %37

13:                                               ; preds = %3
  %14 = zext i8 %12 to i32
  %15 = shl nuw i32 %14, 24
  %16 = sext i32 %15 to i64
  %17 = add i64 %5, 2
  store i64 %17, ptr %4, align 8
  %18 = load ptr, ptr %2, align 8
  %19 = getelementptr inbounds nuw i8, ptr %18, i64 %9
  %20 = load i8, ptr %19, align 1
  %21 = zext i8 %20 to i64
  %22 = shl nuw nsw i64 %21, 16
  %23 = or disjoint i64 %22, %16
  %24 = add i64 %5, 3
  store i64 %24, ptr %4, align 8
  %25 = load ptr, ptr %2, align 8
  %26 = getelementptr inbounds nuw i8, ptr %25, i64 %17
  %27 = load i8, ptr %26, align 1
  %28 = zext i8 %27 to i64
  %29 = shl nuw nsw i64 %28, 8
  %30 = or disjoint i64 %29, %23
  %31 = add i64 %5, 4
  store i64 %31, ptr %4, align 8
  %32 = load ptr, ptr %2, align 8
  %33 = getelementptr inbounds nuw i8, ptr %32, i64 %24
  %34 = load i8, ptr %33, align 1
  %35 = zext i8 %34 to i64
  %36 = or disjoint i64 %30, %35
  br label %_ZNK5o3dgc12BinaryStream10ReadUInt32ERmNS_15O3DGCStreamTypeE.exit

37:                                               ; preds = %3
  %38 = zext i8 %12 to i64
  %39 = add i64 %5, 2
  store i64 %39, ptr %4, align 8
  %40 = load ptr, ptr %2, align 8
  %41 = getelementptr inbounds nuw i8, ptr %40, i64 %9
  %42 = load i8, ptr %41, align 1
  %43 = zext i8 %42 to i64
  %44 = shl nuw nsw i64 %43, 8
  %45 = or disjoint i64 %44, %38
  %46 = add i64 %5, 3
  store i64 %46, ptr %4, align 8
  %47 = load ptr, ptr %2, align 8
  %48 = getelementptr inbounds nuw i8, ptr %47, i64 %39
  %49 = load i8, ptr %48, align 1
  %50 = zext i8 %49 to i64
  %51 = shl nuw nsw i64 %50, 16
  %52 = or disjoint i64 %45, %51
  %53 = add i64 %5, 4
  store i64 %53, ptr %4, align 8
  %54 = load ptr, ptr %2, align 8
  %55 = getelementptr inbounds nuw i8, ptr %54, i64 %46
  %56 = load i8, ptr %55, align 1
  %57 = zext i8 %56 to i32
  %58 = shl nuw i32 %57, 24
  %59 = sext i32 %58 to i64
  %60 = or disjoint i64 %52, %59
  br label %_ZNK5o3dgc12BinaryStream10ReadUInt32ERmNS_15O3DGCStreamTypeE.exit

_ZNK5o3dgc12BinaryStream10ReadUInt32ERmNS_15O3DGCStreamTypeE.exit: ; preds = %13, %37
  %.0.i = phi i64 [ %36, %13 ], [ %60, %37 ]
  %.not = icmp eq i64 %.0.i, 498
  br i1 %.not, label %72, label %.preheader

.preheader:                                       ; preds = %_ZNK5o3dgc12BinaryStream10ReadUInt32ERmNS_15O3DGCStreamTypeE.exit, %.preheader
  %61 = phi i64 [ %62, %.preheader ], [ %5, %_ZNK5o3dgc12BinaryStream10ReadUInt32ERmNS_15O3DGCStreamTypeE.exit ]
  %.011.i.i = phi i64 [ %71, %.preheader ], [ 0, %_ZNK5o3dgc12BinaryStream10ReadUInt32ERmNS_15O3DGCStreamTypeE.exit ]
  %.0710.i.i = phi i32 [ %70, %.preheader ], [ 0, %_ZNK5o3dgc12BinaryStream10ReadUInt32ERmNS_15O3DGCStreamTypeE.exit ]
  %.089.i.i = phi i64 [ %69, %.preheader ], [ 0, %_ZNK5o3dgc12BinaryStream10ReadUInt32ERmNS_15O3DGCStreamTypeE.exit ]
  %62 = add i64 %61, 1
  store i64 %62, ptr %4, align 8
  %63 = load ptr, ptr %2, align 8
  %64 = getelementptr inbounds nuw i8, ptr %63, i64 %61
  %65 = load i8, ptr %64, align 1
  %66 = zext i8 %65 to i32
  %67 = shl i32 %66, %.0710.i.i
  %68 = sext i32 %67 to i64
  %69 = add i64 %.089.i.i, %68
  %70 = add nuw nsw i32 %.0710.i.i, 7
  %71 = add nuw nsw i64 %.011.i.i, 1
  %exitcond.not.i.i = icmp eq i64 %71, 5
  br i1 %exitcond.not.i.i, label %_ZNK5o3dgc12BinaryStream10ReadUInt32ERmNS_15O3DGCStreamTypeE.exit17, label %.preheader, !llvm.loop !8

_ZNK5o3dgc12BinaryStream10ReadUInt32ERmNS_15O3DGCStreamTypeE.exit17: ; preds = %.preheader
  %.not14 = icmp eq i64 %69, 498
  br i1 %.not14, label %72, label %94

72:                                               ; preds = %_ZNK5o3dgc12BinaryStream10ReadUInt32ERmNS_15O3DGCStreamTypeE.exit, %_ZNK5o3dgc12BinaryStream10ReadUInt32ERmNS_15O3DGCStreamTypeE.exit17
  %.sink = phi i32 [ 1, %_ZNK5o3dgc12BinaryStream10ReadUInt32ERmNS_15O3DGCStreamTypeE.exit17 ], [ 2, %_ZNK5o3dgc12BinaryStream10ReadUInt32ERmNS_15O3DGCStreamTypeE.exit ]
  %73 = getelementptr inbounds nuw i8, ptr %0, i64 64
  store i32 %.sink, ptr %73, align 8
  %74 = getelementptr inbounds nuw i8, ptr %0, i64 64
  %75 = tail call noundef i64 @_ZNK5o3dgc12BinaryStream10ReadUInt32ERmNS_15O3DGCStreamTypeE(ptr noundef nonnull align 8 dereferenceable(28) %2, ptr noundef nonnull align 8 dereferenceable(8) %4, i32 noundef %.sink)
  store i64 %75, ptr %0, align 8
  %76 = load i64, ptr %4, align 8
  %77 = add i64 %76, 1
  store i64 %77, ptr %4, align 8
  %78 = load ptr, ptr %2, align 8
  %79 = getelementptr inbounds nuw i8, ptr %78, i64 %76
  %.0.i18 = load i8, ptr %79, align 1
  %80 = zext i8 %.0.i18 to i32
  %81 = getelementptr inbounds nuw i8, ptr %0, i64 60
  store i32 %80, ptr %81, align 4
  %82 = load i32, ptr %74, align 8
  %83 = tail call noundef i64 @_ZNK5o3dgc12BinaryStream10ReadUInt32ERmNS_15O3DGCStreamTypeE(ptr noundef nonnull align 8 dereferenceable(28) %2, ptr noundef nonnull align 8 dereferenceable(8) %4, i32 noundef %82)
  store i64 %83, ptr %1, align 8
  %.not15 = icmp eq i64 %83, 0
  br i1 %.not15, label %94, label %84

84:                                               ; preds = %72
  %85 = getelementptr inbounds nuw i8, ptr %0, i64 48
  %86 = load i32, ptr %74, align 8
  %87 = tail call noundef i64 @_ZNK5o3dgc12BinaryStream10ReadUInt32ERmNS_15O3DGCStreamTypeE(ptr noundef nonnull align 8 dereferenceable(28) %2, ptr noundef nonnull align 8 dereferenceable(8) %4, i32 noundef %86)
  %88 = getelementptr inbounds nuw i8, ptr %1, i64 8
  store i64 %87, ptr %88, align 8
  %89 = load i64, ptr %4, align 8
  %90 = add i64 %89, 1
  store i64 %90, ptr %4, align 8
  %91 = load ptr, ptr %2, align 8
  %92 = getelementptr inbounds nuw i8, ptr %91, i64 %89
  %.0.i19 = load i8, ptr %92, align 1
  %93 = zext i8 %.0.i19 to i64
  store i64 %93, ptr %85, align 8
  br label %94

94:                                               ; preds = %72, %84, %_ZNK5o3dgc12BinaryStream10ReadUInt32ERmNS_15O3DGCStreamTypeE.exit17
  %.0 = phi i32 [ 5, %_ZNK5o3dgc12BinaryStream10ReadUInt32ERmNS_15O3DGCStreamTypeE.exit17 ], [ 0, %84 ], [ 0, %72 ]
  ret i32 %.0
}